; Function Attrs: nounwind uwtable
define hidden void @zif_date_format(ptr noundef %0, ptr nocapture noundef writeonly %1) #0 {
  %3 = alloca ptr, align 8
  %4 = alloca ptr, align 8
  %5 = alloca i64, align 8
  %6 = getelementptr inbounds i8, ptr %0, i64 32
  %7 = getelementptr inbounds i8, ptr %0, i64 44
  %8 = load i32, ptr %7, align 4
  %9 = getelementptr inbounds i8, ptr %0, i64 40
  %10 = load i8, ptr %9, align 8
  %11 = icmp eq i8 %10, 8
  %12 = select i1 %11, ptr %6, ptr null
  %13 = load ptr, ptr @date_ce_interface, align 8
  %14 = call i32 (i32, ptr, ptr, ...) @zend_parse_method_parameters(i32 noundef %8, ptr noundef %12, ptr noundef nonnull @.str.43, ptr noundef nonnull %3, ptr noundef %13, ptr noundef nonnull %4, ptr noundef nonnull %5) #25
  %15 = icmp eq i32 %14, -1
  br i1 %15, label %16, label %19

16:                                               ; preds = %2
  %17 = load ptr, ptr getelementptr inbounds (%struct._zend_executor_globals, ptr @executor_globals, i64 0, i32 50), align 8
  %18 = icmp ne ptr %17, null
  call void @llvm.assume(i1 %18)
  br label %64

19:                                               ; preds = %2
  %20 = load ptr, ptr %3, align 8
  %21 = load ptr, ptr %20, align 8
  %22 = getelementptr inbounds i8, ptr %21, i64 -8
  %23 = load ptr, ptr %22, align 8
  %.not = icmp eq ptr %23, null
  br i1 %.not, label %24, label %52

24:                                               ; preds = %19
  %25 = getelementptr inbounds i8, ptr %21, i64 16
  %26 = load ptr, ptr %25, align 8
  %27 = load i8, ptr %26, align 8
  %28 = icmp eq i8 %27, 1
  br i1 %28, label %29, label %.preheader.i

29:                                               ; preds = %24
  %30 = load ptr, ptr @date_ce_date_object_error, align 8
  %31 = getelementptr inbounds i8, ptr %26, i64 8
  %32 = load ptr, ptr %31, align 8
  %33 = getelementptr inbounds i8, ptr %32, i64 24
  call void (ptr, ptr, ...) @zend_throw_error(ptr noundef %30, ptr noundef nonnull @.str.383, ptr noundef nonnull %33) #25
  br label %date_throw_uninitialized_error.exit

.preheader.i:                                     ; preds = %24, %.preheader.i
  %.0.i = phi ptr [ %35, %.preheader.i ], [ %26, %24 ]
  %34 = getelementptr inbounds i8, ptr %.0.i, i64 16
  %35 = load ptr, ptr %34, align 8
  %.not.i = icmp ne ptr %35, null
  %.pr.i = load i8, ptr %.0.i, align 8
  %36 = icmp eq i8 %.pr.i, 2
  %or.cond = select i1 %.not.i, i1 %36, i1 false
  br i1 %or.cond, label %.preheader.i, label %.critedge.i

.critedge.i:                                      ; preds = %.preheader.i
  %.not12.i = icmp eq i8 %.pr.i, 1
  br i1 %.not12.i, label %42, label %37

37:                                               ; preds = %.critedge.i
  %38 = load ptr, ptr @date_ce_date_object_error, align 8
  %39 = getelementptr inbounds i8, ptr %26, i64 8
  %40 = load ptr, ptr %39, align 8
  %41 = getelementptr inbounds i8, ptr %40, i64 24
  call void (ptr, ptr, ...) @zend_throw_error(ptr noundef %38, ptr noundef nonnull @.str.384, ptr noundef nonnull %41) #25
  br label %42

42:                                               ; preds = %37, %.critedge.i
  %43 = load ptr, ptr @date_ce_date_object_error, align 8
  %44 = getelementptr inbounds i8, ptr %26, i64 8
  %45 = load ptr, ptr %44, align 8
  %46 = getelementptr inbounds i8, ptr %45, i64 24
  %47 = getelementptr inbounds i8, ptr %.0.i, i64 8
  %48 = load ptr, ptr %47, align 8
  %49 = getelementptr inbounds i8, ptr %48, i64 24
  call void (ptr, ptr, ...) @zend_throw_error(ptr noundef %43, ptr noundef nonnull @.str.385, ptr noundef nonnull %46, ptr noundef nonnull %49) #25
  br label %date_throw_uninitialized_error.exit

date_throw_uninitialized_error.exit:              ; preds = %29, %42
  %50 = load ptr, ptr getelementptr inbounds (%struct._zend_executor_globals, ptr @executor_globals, i64 0, i32 50), align 8
  %51 = icmp ne ptr %50, null
  call void @llvm.assume(i1 %51)
  br label %64

52:                                               ; preds = %19
  %53 = load ptr, ptr %4, align 8
  %54 = load i64, ptr %5, align 8
  %55 = getelementptr inbounds i8, ptr %23, i64 228
  %56 = load i32, ptr %55, align 4
  %57 = icmp ne i32 %56, 0
  %58 = call fastcc ptr @date_format(ptr noundef %53, i64 noundef %54, ptr noundef nonnull %23, i1 noundef zeroext %57)
  store ptr %58, ptr %1, align 8
  %59 = getelementptr inbounds i8, ptr %58, i64 4
  %60 = load i32, ptr %59, align 4
  %61 = and i32 %60, 64
  %.not12 = icmp eq i32 %61, 0
  %62 = select i1 %.not12, i32 262, i32 6
  %63 = getelementptr inbounds i8, ptr %1, i64 8
  store i32 %62, ptr %63, align 8
  br label %64

64:                                               ; preds = %52, %date_throw_uninitialized_error.exit, %16
  ret void
}